; ModuleID = '23/812.c'
source_filename = "23/812.c"
target datalayout = "e-m:e-p270:32:32-p271:32:32-p272:64:64-i64:64-f80:128-n8:16:32:64-S128"
target triple = "x86_64-pc-linux-gnu"

@.str = private unnamed_addr constant [3 x i8] c"%c\00", align 1
@.str.1 = private unnamed_addr constant [2 x i8] c" \00", align 1

; Function Attrs: noinline nounwind uwtable
define dso_local void @main() #0 {
  %1 = alloca [101 x i8], align 16
  %2 = alloca [50 x [100 x i8]], align 16
  %3 = alloca i8, align 1
  %4 = alloca i32, align 4
  %5 = alloca i32, align 4
  %6 = alloca i32, align 4
  %7 = alloca i32, align 4
  store i32 0, i32* %4, align 4
  %8 = getelementptr inbounds [101 x i8], [101 x i8]* %1, i64 0, i64 0
  %9 = call i32 (i8*, ...) bitcast (i32 (...)* @gets to i32 (i8*, ...)*)(i8* %8)
  %10 = getelementptr inbounds [101 x i8], [101 x i8]* %1, i64 0, i64 0
  %11 = call i64 @strlen(i8* %10) #3
  %12 = trunc i64 %11 to i32
  store i32 %12, i32* %7, align 4
  store i32 0, i32* %5, align 4
  br label %13

13:                                               ; preds = %59, %0
  %14 = load i32, i32* %5, align 4
  %15 = icmp slt i32 %14, 50
  br i1 %15, label %16, label %62

16:                                               ; preds = %13
  store i32 0, i32* %6, align 4
  br label %17

17:                                               ; preds = %39, %16
  %18 = load i32, i32* %6, align 4
  %19 = load i32, i32* %4, align 4
  %20 = add nsw i32 %18, %19
  %21 = sext i32 %20 to i64
  %22 = getelementptr inbounds [101 x i8], [101 x i8]* %1, i64 0, i64 %21
  %23 = load i8, i8* %22, align 1
  store i8 %23, i8* %3, align 1
  %24 = sext i8 %23 to i32
  %25 = icmp ne i32 %24, 32
  br i1 %25, label %26, label %42

26:                                               ; preds = %17
  %27 = load i32, i32* %6, align 4
  %28 = load i32, i32* %4, align 4
  %29 = add nsw i32 %27, %28
  %30 = sext i32 %29 to i64
  %31 = getelementptr inbounds [101 x i8], [101 x i8]* %1, i64 0, i64 %30
  %32 = load i8, i8* %31, align 1
  %33 = load i32, i32* %5, align 4
  %34 = sext i32 %33 to i64
  %35 = getelementptr inbounds [50 x [100 x i8]], [50 x [100 x i8]]* %2, i64 0, i64 %34
  %36 = load i32, i32* %6, align 4
  %37 = sext i32 %36 to i64
  %38 = getelementptr inbounds [100 x i8], [100 x i8]* %35, i64 0, i64 %37
  store i8 %32, i8* %38, align 1
  br label %39

39:                                               ; preds = %26
  %40 = load i32, i32* %6, align 4
  %41 = add nsw i32 %40, 1
  store i32 %41, i32* %6, align 4
  br label %17

42:                                               ; preds = %17
  %43 = load i32, i32* %4, align 4
  %44 = load i32, i32* %6, align 4
  %45 = add nsw i32 %43, %44
  %46 = add nsw i32 %45, 1
  store i32 %46, i32* %4, align 4
  %47 = load i32, i32* %5, align 4
  %48 = sext i32 %47 to i64
  %49 = getelementptr inbounds [50 x [100 x i8]], [50 x [100 x i8]]* %2, i64 0, i64 %48
  %50 = load i32, i32* %6, align 4
  %51 = add nsw i32 %50, 1
  %52 = sext i32 %51 to i64
  %53 = getelementptr inbounds [100 x i8], [100 x i8]* %49, i64 0, i64 %52
  store i8 0, i8* %53, align 1
  %54 = load i32, i32* %4, align 4
  %55 = load i32, i32* %7, align 4
  %56 = icmp sgt i32 %54, %55
  br i1 %56, label %57, label %58

57:                                               ; preds = %42
  br label %62

58:                                               ; preds = %42
  br label %59

59:                                               ; preds = %58
  %60 = load i32, i32* %5, align 4
  %61 = add nsw i32 %60, 1
  store i32 %61, i32* %5, align 4
  br label %13

62:                                               ; preds = %57, %13
  br label %63

63:                                               ; preds = %92, %62
  %64 = load i32, i32* %5, align 4
  %65 = icmp ne i32 %64, 0
  br i1 %65, label %66, label %95

66:                                               ; preds = %63
  store i32 0, i32* %6, align 4
  br label %67

67:                                               ; preds = %87, %66
  %68 = load i32, i32* %5, align 4
  %69 = sext i32 %68 to i64
  %70 = getelementptr inbounds [50 x [100 x i8]], [50 x [100 x i8]]* %2, i64 0, i64 %69
  %71 = load i32, i32* %6, align 4
  %72 = sext i32 %71 to i64
  %73 = getelementptr inbounds [100 x i8], [100 x i8]* %70, i64 0, i64 %72
  %74 = load i8, i8* %73, align 1
  store i8 %74, i8* %3, align 1
  %75 = sext i8 %74 to i32
  %76 = icmp ne i32 %75, 0
  br i1 %76, label %77, label %90

77:                                               ; preds = %67
  %78 = load i32, i32* %5, align 4
  %79 = sext i32 %78 to i64
  %80 = getelementptr inbounds [50 x [100 x i8]], [50 x [100 x i8]]* %2, i64 0, i64 %79
  %81 = load i32, i32* %6, align 4
  %82 = sext i32 %81 to i64
  %83 = getelementptr inbounds [100 x i8], [100 x i8]* %80, i64 0, i64 %82
  %84 = load i8, i8* %83, align 1
  %85 = sext i8 %84 to i32
  %86 = call i32 (i8*, ...) @printf(i8* getelementptr inbounds ([3 x i8], [3 x i8]* @.str, i64 0, i64 0), i32 %85)
  br label %87

87:                                               ; preds = %77
  %88 = load i32, i32* %6, align 4
  %89 = add nsw i32 %88, 1
  store i32 %89, i32* %6, align 4
  br label %67

90:                                               ; preds = %67
  %91 = call i32 (i8*, ...) @printf(i8* getelementptr inbounds ([2 x i8], [2 x i8]* @.str.1, i64 0, i64 0))
  br label %92

92:                                               ; preds = %90
  %93 = load i32, i32* %5, align 4
  %94 = add nsw i32 %93, -1
  store i32 %94, i32* %5, align 4
  br label %63

95:                                               ; preds = %63
  store i32 0, i32* %6, align 4
  br label %96

96:                                               ; preds = %112, %95
  %97 = getelementptr inbounds [50 x [100 x i8]], [50 x [100 x i8]]* %2, i64 0, i64 0
  %98 = load i32, i32* %6, align 4
  %99 = sext i32 %98 to i64
  %100 = getelementptr inbounds [100 x i8], [100 x i8]* %97, i64 0, i64 %99
  %101 = load i8, i8* %100, align 1
  store i8 %101, i8* %3, align 1
  %102 = sext i8 %101 to i32
  %103 = icmp ne i32 %102, 0
  br i1 %103, label %104, label %115

104:                                              ; preds = %96
  %105 = getelementptr inbounds [50 x [100 x i8]], [50 x [100 x i8]]* %2, i64 0, i64 0
  %106 = load i32, i32* %6, align 4
  %107 = sext i32 %106 to i64
  %108 = getelementptr inbounds [100 x i8], [100 x i8]* %105, i64 0, i64 %107
  %109 = load i8, i8* %108, align 1
  %110 = sext i8 %109 to i32
  %111 = call i32 (i8*, ...) @printf(i8* getelementptr inbounds ([3 x i8], [3 x i8]* @.str, i64 0, i64 0), i32 %110)
  br label %112

112:                                              ; preds = %104
  %113 = load i32, i32* %6, align 4
  %114 = add nsw i32 %113, 1
  store i32 %114, i32* %6, align 4
  br label %96

115:                                              ; preds = %96
  ret void
}

declare dso_local i32 @gets(...) #1

; Function Attrs: nounwind readonly
declare dso_local i64 @strlen(i8*) #2

declare dso_local i32 @printf(i8*, ...) #1


!llvm.module.flags = !{!0}
!llvm.ident = !{!1}

!0 = !{i32 1, !"wchar_size", i32 4}
!1 = !{!"clang version 10.0.0-4ubuntu1 "}
